; Function Attrs: mustprogress uwtable
define hidden noundef zeroext i1 @_ZNK7datalog16product_relation30try_get_single_non_transparentERj(ptr noundef nonnull readonly align 8 captures(none) dereferenceable(48) %0, ptr noundef nonnull writeonly align 4 captures(none) dereferenceable(4) %1) local_unnamed_addr #3 align 2 {
  %3 = getelementptr inbounds nuw i8, ptr %0, i64 32
  %4 = load ptr, ptr %3, align 8, !tbaa !89
  %5 = icmp eq ptr %4, null
  br i1 %5, label %.thread38, label %_ZNK7datalog16product_relation4sizeEv.exit

_ZNK7datalog16product_relation4sizeEv.exit:       ; preds = %2
  %6 = getelementptr inbounds i8, ptr %4, i64 -4
  %7 = load i32, ptr %6, align 4, !tbaa !39
  %.not43.not = icmp eq i32 %7, 0
  br i1 %.not43.not, label %.thread38, label %.lr.ph.preheader

.lr.ph.preheader:                                 ; preds = %_ZNK7datalog16product_relation4sizeEv.exit
  %wide.trip.count = zext i32 %7 to i64
  br label %.lr.ph

.lr.ph:                                           ; preds = %.lr.ph.preheader, %.thread32
  %indvars.iv = phi i64 [ 0, %.lr.ph.preheader ], [ %indvars.iv.next, %.thread32 ]
  %.01746 = phi i8 [ 0, %.lr.ph.preheader ], [ %.21937, %.thread32 ]
  %.02444 = phi i32 [ undef, %.lr.ph.preheader ], [ %.22636, %.thread32 ]
  %8 = load ptr, ptr %3, align 8, !tbaa !89
  %9 = getelementptr inbounds nuw ptr, ptr %8, i64 %indvars.iv
  %10 = load ptr, ptr %9, align 8, !tbaa !92
  %11 = getelementptr inbounds nuw i8, ptr %10, i64 8
  %12 = load ptr, ptr %11, align 8, !tbaa !86
  %13 = getelementptr inbounds nuw i8, ptr %12, i64 32
  %14 = load i32, ptr %13, align 8, !tbaa !14
  %15 = icmp eq i32 %14, 4
  br i1 %15, label %16, label %31

16:                                               ; preds = %.lr.ph
  %17 = tail call noundef nonnull align 8 dereferenceable(72) ptr @_ZN7datalog21sieve_relation_plugin3getERNS_13relation_baseE(ptr noundef nonnull align 8 dereferenceable(28) %10)
  %18 = getelementptr inbounds nuw i8, ptr %17, i64 56
  %19 = load ptr, ptr %18, align 8, !tbaa !144
  %20 = icmp eq ptr %19, null
  br i1 %20, label %_ZNK6vectorIjLb0EjE4sizeEv.exit.i, label %21

21:                                               ; preds = %16
  %22 = getelementptr inbounds i8, ptr %19, i64 -4
  %23 = load i32, ptr %22, align 4, !tbaa !39
  br label %_ZNK6vectorIjLb0EjE4sizeEv.exit.i

_ZNK6vectorIjLb0EjE4sizeEv.exit.i:                ; preds = %21, %16
  %.0.i.i28 = phi i32 [ %23, %21 ], [ 0, %16 ]
  %24 = getelementptr inbounds nuw i8, ptr %17, i64 16
  %25 = load ptr, ptr %24, align 8, !tbaa !125
  %26 = icmp eq ptr %25, null
  br i1 %26, label %_ZNK7datalog14sieve_relation16no_inner_columnsEv.exit, label %27

27:                                               ; preds = %_ZNK6vectorIjLb0EjE4sizeEv.exit.i
  %28 = getelementptr inbounds i8, ptr %25, i64 -4
  %29 = load i32, ptr %28, align 4, !tbaa !39
  br label %_ZNK7datalog14sieve_relation16no_inner_columnsEv.exit

_ZNK7datalog14sieve_relation16no_inner_columnsEv.exit: ; preds = %_ZNK6vectorIjLb0EjE4sizeEv.exit.i, %27
  %.0.i1.i = phi i32 [ %29, %27 ], [ 0, %_ZNK6vectorIjLb0EjE4sizeEv.exit.i ]
  %30 = icmp eq i32 %.0.i.i28, %.0.i1.i
  br i1 %30, label %.thread32, label %31

31:                                               ; preds = %_ZNK7datalog14sieve_relation16no_inner_columnsEv.exit, %.lr.ph
  %32 = trunc nuw i8 %.01746 to i1
  %33 = trunc nuw i64 %indvars.iv to i32
  br i1 %32, label %.thread38, label %.thread32

.thread32:                                        ; preds = %_ZNK7datalog14sieve_relation16no_inner_columnsEv.exit, %31
  %.21937 = phi i8 [ 1, %31 ], [ %.01746, %_ZNK7datalog14sieve_relation16no_inner_columnsEv.exit ]
  %.22636 = phi i32 [ %33, %31 ], [ %.02444, %_ZNK7datalog14sieve_relation16no_inner_columnsEv.exit ]
  %indvars.iv.next = add nuw nsw i64 %indvars.iv, 1
  %exitcond.not = icmp eq i64 %indvars.iv.next, %wide.trip.count
  br i1 %exitcond.not, label %._crit_edge, label %.lr.ph, !llvm.loop !146

._crit_edge:                                      ; preds = %.thread32
  %34 = trunc nuw i8 %.21937 to i1
  br i1 %34, label %35, label %.thread38

35:                                               ; preds = %._crit_edge
  store i32 %.22636, ptr %1, align 4, !tbaa !39
  br label %.thread38

.thread38:                                        ; preds = %31, %2, %_ZNK7datalog16product_relation4sizeEv.exit, %._crit_edge, %35
  %.3 = phi i1 [ true, %35 ], [ false, %._crit_edge ], [ false, %_ZNK7datalog16product_relation4sizeEv.exit ], [ false, %2 ], [ false, %31 ]
  ret i1 %.3
}